target datalayout = "e-m:e-p270:32:32-p271:32:32-p272:64:64-i64:64-i128:128-f80:128-n8:16:32:64-S128"
target triple = "x86_64-pc-linux-gnu"

%class.RelocationHolder = type { [40 x i8] }
%class.relocInfo = type { i16 }
%class.RelocIterator = type { ptr, ptr, ptr, ptr, ptr, i16, ptr, i16, [3 x ptr], [3 x ptr], %class.RelocationHolder }

; Function Attrs: mustprogress nounwind uwtable
define linkonce_odr hidden noundef zeroext i16 @_ZNK9relocInfo9immediateEv(ptr noundef nonnull align 2 dereferenceable(2) %0) #1 comdat align 2 {
  %2 = alloca ptr, align 8
  store ptr %0, ptr %2, align 8
  %3 = load ptr, ptr %2, align 8
  %4 = getelementptr inbounds %class.relocInfo, ptr %3, i32 0, i32 0
  %5 = load i16, ptr %4, align 2
  %6 = zext i16 %5 to i32
  %7 = and i32 %6, 1023
  %8 = trunc i32 %7 to i16
  ret i16 %8
}

; Function Attrs: mustprogress nounwind uwtable
define linkonce_odr hidden noundef zeroext i16 @_ZNK9relocInfo7datalenEv(ptr noundef nonnull align 2 dereferenceable(2) %0) #1 comdat align 2 {
  %2 = alloca ptr, align 8
  store ptr %0, ptr %2, align 8
  %3 = load ptr, ptr %2, align 8
  %4 = getelementptr inbounds %class.relocInfo, ptr %3, i32 0, i32 0
  %5 = load i16, ptr %4, align 2
  %6 = zext i16 %5 to i32
  %7 = and i32 %6, 1023
  %8 = trunc i32 %7 to i16
  ret i16 %8
}

; Function Attrs: mustprogress nounwind uwtable
define linkonce_odr hidden noundef ptr @_ZNK9relocInfo4dataEv(ptr noundef nonnull align 2 dereferenceable(2) %0) #1 comdat align 2 {
  %2 = alloca ptr, align 8
  store ptr %0, ptr %2, align 8
  %3 = load ptr, ptr %2, align 8
  %4 = getelementptr inbounds %class.relocInfo, ptr %3, i64 1
  ret ptr %4
}

; Function Attrs: mustprogress nounwind uwtable
define linkonce_odr hidden noundef zeroext i1 @_ZNK9relocInfo10is_datalenEv(ptr noundef nonnull align 2 dereferenceable(2) %0) #1 comdat align 2 {
  %2 = alloca ptr, align 8
  store ptr %0, ptr %2, align 8
  %3 = load ptr, ptr %2, align 8
  %4 = getelementptr inbounds %class.relocInfo, ptr %3, i32 0, i32 0
  %5 = load i16, ptr %4, align 2
  %6 = zext i16 %5 to i32
  %7 = and i32 %6, 1024
  %8 = icmp ne i32 %7, 0
  ret i1 %8
}

; Function Attrs: mustprogress nounwind uwtable
define hidden void @_ZN13RelocIterator19advance_over_prefixEv(ptr noundef nonnull align 8 dereferenceable(152) %0) #1 align 2 {
  %2 = alloca ptr, align 8
  store ptr %0, ptr %2, align 8
  %3 = load ptr, ptr %2, align 8
  %4 = getelementptr inbounds %class.RelocIterator, ptr %3, i32 0, i32 1
  %5 = load ptr, ptr %4, align 8
  %6 = call noundef zeroext i1 @_ZNK9relocInfo10is_datalenEv(ptr noundef nonnull align 2 dereferenceable(2) %5)
  br i1 %6, label %7, label %24

7:                                                ; preds = %1
  %8 = getelementptr inbounds %class.RelocIterator, ptr %3, i32 0, i32 1
  %9 = load ptr, ptr %8, align 8
  %10 = call noundef ptr @_ZNK9relocInfo4dataEv(ptr noundef nonnull align 2 dereferenceable(2) %9)
  %11 = getelementptr inbounds %class.RelocIterator, ptr %3, i32 0, i32 6
  store ptr %10, ptr %11, align 8
  %12 = getelementptr inbounds %class.RelocIterator, ptr %3, i32 0, i32 1
  %13 = load ptr, ptr %12, align 8
  %14 = call noundef zeroext i16 @_ZNK9relocInfo7datalenEv(ptr noundef nonnull align 2 dereferenceable(2) %13)
  %15 = getelementptr inbounds %class.RelocIterator, ptr %3, i32 0, i32 7
  store i16 %14, ptr %15, align 8
  %16 = getelementptr inbounds %class.RelocIterator, ptr %3, i32 0, i32 7
  %17 = load i16, ptr %16, align 8
  %18 = sext i16 %17 to i32
  %19 = add nsw i32 %18, 1
  %20 = getelementptr inbounds %class.RelocIterator, ptr %3, i32 0, i32 1
  %21 = load ptr, ptr %20, align 8
  %22 = sext i32 %19 to i64
  %23 = getelementptr inbounds %class.relocInfo, ptr %21, i64 %22
  store ptr %23, ptr %20, align 8
  br label %35

24:                                               ; preds = %1
  %25 = getelementptr inbounds %class.RelocIterator, ptr %3, i32 0, i32 1
  %26 = load ptr, ptr %25, align 8
  %27 = call noundef zeroext i16 @_ZNK9relocInfo9immediateEv(ptr noundef nonnull align 2 dereferenceable(2) %26)
  %28 = getelementptr inbounds %class.RelocIterator, ptr %3, i32 0, i32 5
  store i16 %27, ptr %28, align 8
  %29 = getelementptr inbounds %class.RelocIterator, ptr %3, i32 0, i32 5
  %30 = getelementptr inbounds %class.RelocIterator, ptr %3, i32 0, i32 6
  store ptr %29, ptr %30, align 8
  %31 = getelementptr inbounds %class.RelocIterator, ptr %3, i32 0, i32 7
  store i16 1, ptr %31, align 8
  %32 = getelementptr inbounds %class.RelocIterator, ptr %3, i32 0, i32 1
  %33 = load ptr, ptr %32, align 8
  %34 = getelementptr inbounds %class.relocInfo, ptr %33, i32 1
  store ptr %34, ptr %32, align 8
  br label %35

35:                                               ; preds = %24, %7
  ret void
}