; Function Attrs: mustprogress nofree norecurse nosync nounwind willreturn memory(read, argmem: readwrite, inaccessiblemem: none) uwtable
define hidden void @_ZN13RelocIterator19advance_over_prefixEv(ptr noundef nonnull align 8 dereferenceable(152) %0) local_unnamed_addr #9 align 2 {
  %2 = getelementptr inbounds i8, ptr %0, i64 8
  %3 = load ptr, ptr %2, align 8
  %4 = load i16, ptr %3, align 2
  %5 = and i16 %4, 1024
  %.not = icmp eq i16 %5, 0
  br i1 %.not, label %13, label %6

6:                                                ; preds = %1
  %7 = getelementptr inbounds i8, ptr %3, i64 2
  %8 = getelementptr inbounds i8, ptr %0, i64 48
  store ptr %7, ptr %8, align 8
  %9 = load i16, ptr %3, align 2
  %10 = and i16 %9, 1023
  %11 = zext nneg i16 %10 to i64
  %12 = getelementptr %class.relocInfo, ptr %3, i64 %11
  br label %17

13:                                               ; preds = %1
  %14 = and i16 %4, 1023
  %15 = getelementptr inbounds i8, ptr %0, i64 40
  store i16 %14, ptr %15, align 8
  %16 = getelementptr inbounds i8, ptr %0, i64 48
  store ptr %15, ptr %16, align 8
  br label %17

17:                                               ; preds = %13, %6
  %.sink = phi i16 [ 1, %13 ], [ %10, %6 ]
  %.pn = phi ptr [ %3, %13 ], [ %12, %6 ]
  %18 = getelementptr inbounds i8, ptr %0, i64 56
  store i16 %.sink, ptr %18, align 8
  %storemerge = getelementptr i8, ptr %.pn, i64 2
  store ptr %storemerge, ptr %2, align 8
  ret void
}